target datalayout = "e-m:e-p270:32:32-p271:32:32-p272:64:64-i64:64-i128:128-f80:128-n8:16:32:64-S128"
target triple = "x86_64-pc-linux-gnu"

%class.QString = type { %struct.QArrayDataPointer }
%struct.QArrayDataPointer = type { ptr, ptr, i64 }
%class.QList.5 = type { %struct.QArrayDataPointer.8 }
%struct.QArrayDataPointer.8 = type { ptr, ptr, i64 }
%class.ExportObjectDialog = type { %class.WiresharkDialog.base, ptr, ptr, ptr, %class.ExportObjectModel, %class.ExportObjectProxyModel, %class.QList.5 }
%class.WiresharkDialog.base = type <{ %class.GeometryStateDialog, ptr, i8, [7 x i8], %class.QString, %class.QList, i32, i8 }>
%class.GeometryStateDialog = type { %class.QDialog, %class.QString }
%class.QDialog = type { %class.QWidget }
%class.QWidget = type { %class.QObject, %class.QPaintDevice.base, ptr }
%class.QObject = type { ptr, %class.QScopedPointer }
%class.QScopedPointer = type { ptr }
%class.QPaintDevice.base = type <{ ptr, i16 }>
%class.QList = type { %struct.QArrayDataPointer.0 }
%struct.QArrayDataPointer.0 = type { ptr, ptr, i64 }
%class.ExportObjectModel = type { %class.QAbstractTableModel, %class.QList.1, %struct._export_object_list_t, %struct.export_object_list_gui_t, ptr }
%class.QAbstractTableModel = type { %class.QAbstractItemModel }
%class.QAbstractItemModel = type { %class.QObject }
%class.QList.1 = type { %struct.QArrayDataPointer.4 }
%struct.QArrayDataPointer.4 = type { ptr, ptr, i64 }
%struct._export_object_list_t = type { ptr, ptr, ptr }
%struct.export_object_list_gui_t = type { ptr }
%class.ExportObjectProxyModel = type { %class.QSortFilterProxyModel, %class.QString, %class.QString }
%class.QSortFilterProxyModel = type { %class.QAbstractProxyModel }
%class.QAbstractProxyModel = type { %class.QAbstractItemModel }
%class.Ui_ExportObjectDialog = type { ptr, ptr, ptr, ptr, ptr, ptr, ptr, ptr, ptr, ptr, ptr, ptr, ptr }
%class.WiresharkDialog = type <{ %class.GeometryStateDialog, ptr, i8, [7 x i8], %class.QString, %class.QList, i32, i8, [3 x i8] }>
%class.QModelIndex = type { i32, i32, i64, ptr }

; Function Attrs: mustprogress nounwind uwtable
define linkonce_odr void @_ZN11QModelIndexC2Ev(ptr noundef nonnull align 8 dereferenceable(24) %0) unnamed_addr #3 comdat align 2 {
  %2 = alloca ptr, align 8
  store ptr %0, ptr %2, align 8
  %3 = load ptr, ptr %2, align 8
  %4 = getelementptr inbounds %class.QModelIndex, ptr %3, i32 0, i32 0
  store i32 -1, ptr %4, align 8
  %5 = getelementptr inbounds %class.QModelIndex, ptr %3, i32 0, i32 1
  store i32 -1, ptr %5, align 4
  %6 = getelementptr inbounds %class.QModelIndex, ptr %3, i32 0, i32 2
  store i64 0, ptr %6, align 8
  %7 = getelementptr inbounds %class.QModelIndex, ptr %3, i32 0, i32 3
  store ptr null, ptr %7, align 8
  ret void
}

; Function Attrs: mustprogress uwtable
define void @_ZN18ExportObjectDialog4showEv(ptr noundef nonnull align 8 dereferenceable(328) %0) #0 align 2 {
  %2 = alloca ptr, align 8
  %3 = alloca i32, align 4
  %4 = alloca %class.QModelIndex, align 8
  store ptr %0, ptr %2, align 8
  %5 = load ptr, ptr %2, align 8
  %6 = getelementptr inbounds %class.ExportObjectDialog, ptr %5, i32 0, i32 4
  %7 = call noundef ptr @_ZN17ExportObjectModel18getTapListenerNameEv(ptr noundef nonnull align 8 dereferenceable(80) %6)
  %8 = getelementptr inbounds %class.ExportObjectDialog, ptr %5, i32 0, i32 4
  %9 = call noundef ptr @_ZN17ExportObjectModel10getTapDataEv(ptr noundef nonnull align 8 dereferenceable(80) %8)
  %10 = getelementptr inbounds %class.ExportObjectDialog, ptr %5, i32 0, i32 4
  %11 = call noundef ptr @_ZN17ExportObjectModel16getTapPacketFuncEv(ptr noundef nonnull align 8 dereferenceable(80) %10)
  %12 = call noundef zeroext i1 @_ZN15WiresharkDialog19registerTapListenerEPKcPvS1_jPFvS2_EPF17tap_packet_statusS2_P12_packet_infoP12epan_dissectPKvjES4_(ptr noundef nonnull align 8 dereferenceable(133) %5, ptr noundef %7, ptr noundef %9, ptr noundef null, i32 noundef 0, ptr noundef @_ZN17ExportObjectModel8resetTapEPv, ptr noundef %11, ptr noundef null)
  br i1 %12, label %14, label %13

13:                                               ; preds = %1
  br label %47

14:                                               ; preds = %1
  call void @_ZN7QWidget4showEv(ptr noundef nonnull align 8 dereferenceable(40) %5)
  %15 = getelementptr inbounds %class.WiresharkDialog, ptr %5, i32 0, i32 1
  %16 = load ptr, ptr %15, align 8
  call void @_ZN11CaptureFile12retapPacketsEv(ptr noundef nonnull align 8 dereferenceable(48) %16)
  %17 = getelementptr inbounds %class.ExportObjectDialog, ptr %5, i32 0, i32 1
  %18 = load ptr, ptr %17, align 8
  %19 = getelementptr inbounds %class.Ui_ExportObjectDialog, ptr %18, i32 0, i32 7
  %20 = load ptr, ptr %19, align 8
  call void @_ZN7QWidget4hideEv(ptr noundef nonnull align 8 dereferenceable(40) %20)
  store i32 0, ptr %3, align 4
  br label %21

21:                                               ; preds = %39, %14
  %22 = load i32, ptr %3, align 4
  %23 = getelementptr inbounds %class.ExportObjectDialog, ptr %5, i32 0, i32 1
  %24 = load ptr, ptr %23, align 8
  %25 = getelementptr inbounds %class.Ui_ExportObjectDialog, ptr %24, i32 0, i32 6
  %26 = load ptr, ptr %25, align 8
  %27 = call noundef ptr @_ZNK17QAbstractItemView5modelEv(ptr noundef nonnull align 8 dereferenceable(40) %26)
  call void @_ZN11QModelIndexC2Ev(ptr noundef nonnull align 8 dereferenceable(24) %4) #15
  %28 = load ptr, ptr %27, align 8
  %29 = getelementptr inbounds ptr, ptr %28, i64 16
  %30 = load ptr, ptr %29, align 8
  %31 = call noundef i32 %30(ptr noundef nonnull align 8 dereferenceable(16) %27, ptr noundef nonnull align 8 dereferenceable(24) %4)
  %32 = icmp slt i32 %22, %31
  br i1 %32, label %33, label %42

33:                                               ; preds = %21
  %34 = getelementptr inbounds %class.ExportObjectDialog, ptr %5, i32 0, i32 1
  %35 = load ptr, ptr %34, align 8
  %36 = getelementptr inbounds %class.Ui_ExportObjectDialog, ptr %35, i32 0, i32 6
  %37 = load ptr, ptr %36, align 8
  %38 = load i32, ptr %3, align 4
  call void @_ZN9QTreeView22resizeColumnToContentsEi(ptr noundef nonnull align 8 dereferenceable(40) %37, i32 noundef %38)
  br label %39

39:                                               ; preds = %33
  %40 = load i32, ptr %3, align 4
  %41 = add i32 %40, 1
  store i32 %41, ptr %3, align 4
  br label %21, !llvm.loop !6

42:                                               ; preds = %21
  %43 = getelementptr inbounds %class.ExportObjectDialog, ptr %5, i32 0, i32 1
  %44 = load ptr, ptr %43, align 8
  %45 = getelementptr inbounds %class.Ui_ExportObjectDialog, ptr %44, i32 0, i32 6
  %46 = load ptr, ptr %45, align 8
  call void @_ZN9QTreeView12sortByColumnEiN2Qt9SortOrderE(ptr noundef nonnull align 8 dereferenceable(40) %46, i32 noundef 0, i32 noundef 0)
  br label %47

47:                                               ; preds = %42, %13
  ret void
}