; Function Attrs: mustprogress uwtable
define void @_ZN18ExportObjectDialog4showEv(ptr noundef nonnull align 8 dereferenceable(328) %0) local_unnamed_addr #0 align 2 {
  %2 = alloca %class.QModelIndex, align 8
  %3 = getelementptr inbounds i8, ptr %0, i64 160
  %4 = tail call noundef ptr @_ZN17ExportObjectModel18getTapListenerNameEv(ptr noundef nonnull align 8 dereferenceable(80) %3)
  %5 = tail call noundef ptr @_ZN17ExportObjectModel10getTapDataEv(ptr noundef nonnull align 8 dereferenceable(80) %3)
  %6 = tail call noundef ptr @_ZN17ExportObjectModel16getTapPacketFuncEv(ptr noundef nonnull align 8 dereferenceable(80) %3)
  %7 = tail call noundef zeroext i1 @_ZN15WiresharkDialog19registerTapListenerEPKcPvS1_jPFvS2_EPF17tap_packet_statusS2_P12_packet_infoP12epan_dissectPKvjES4_(ptr noundef nonnull align 8 dereferenceable(133) %0, ptr noundef %4, ptr noundef %5, ptr noundef null, i32 noundef 0, ptr noundef nonnull @_ZN17ExportObjectModel8resetTapEPv, ptr noundef %6, ptr noundef null)
  br i1 %7, label %8, label %42

8:                                                ; preds = %1
  tail call void @_ZN7QWidget4showEv(ptr noundef nonnull align 8 dereferenceable(40) %0)
  %9 = getelementptr inbounds i8, ptr %0, i64 64
  %10 = load ptr, ptr %9, align 8
  tail call void @_ZN11CaptureFile12retapPacketsEv(ptr noundef nonnull align 8 dereferenceable(48) %10)
  %11 = getelementptr inbounds i8, ptr %0, i64 136
  %12 = load ptr, ptr %11, align 8
  %13 = getelementptr inbounds i8, ptr %12, i64 56
  %14 = load ptr, ptr %13, align 8
  tail call void @_ZN7QWidget4hideEv(ptr noundef nonnull align 8 dereferenceable(40) %14)
  %15 = load ptr, ptr %11, align 8
  %16 = getelementptr inbounds i8, ptr %15, i64 48
  %17 = load ptr, ptr %16, align 8
  %18 = tail call noundef ptr @_ZNK17QAbstractItemView5modelEv(ptr noundef nonnull align 8 dereferenceable(40) %17)
  store i32 -1, ptr %2, align 8
  %19 = getelementptr inbounds i8, ptr %2, i64 4
  store i32 -1, ptr %19, align 4
  %20 = getelementptr inbounds i8, ptr %2, i64 8
  call void @llvm.memset.p0.i64(ptr noundef nonnull align 8 dereferenceable(16) %20, i8 0, i64 16, i1 false)
  %21 = load ptr, ptr %18, align 8
  %22 = getelementptr inbounds i8, ptr %21, i64 128
  %23 = load ptr, ptr %22, align 8
  %24 = call noundef i32 %23(ptr noundef nonnull align 8 dereferenceable(16) %18, ptr noundef nonnull align 8 dereferenceable(24) %2)
  %25 = icmp sgt i32 %24, 0
  br i1 %25, label %.lr.ph, label %._crit_edge

.lr.ph:                                           ; preds = %8, %.lr.ph
  %.03 = phi i32 [ %29, %.lr.ph ], [ 0, %8 ]
  %26 = load ptr, ptr %11, align 8
  %27 = getelementptr inbounds i8, ptr %26, i64 48
  %28 = load ptr, ptr %27, align 8
  call void @_ZN9QTreeView22resizeColumnToContentsEi(ptr noundef nonnull align 8 dereferenceable(40) %28, i32 noundef %.03)
  %29 = add nuw nsw i32 %.03, 1
  %30 = load ptr, ptr %11, align 8
  %31 = getelementptr inbounds i8, ptr %30, i64 48
  %32 = load ptr, ptr %31, align 8
  %33 = call noundef ptr @_ZNK17QAbstractItemView5modelEv(ptr noundef nonnull align 8 dereferenceable(40) %32)
  store i32 -1, ptr %2, align 8
  store i32 -1, ptr %19, align 4
  call void @llvm.memset.p0.i64(ptr noundef nonnull align 8 dereferenceable(16) %20, i8 0, i64 16, i1 false)
  %34 = load ptr, ptr %33, align 8
  %35 = getelementptr inbounds i8, ptr %34, i64 128
  %36 = load ptr, ptr %35, align 8
  %37 = call noundef i32 %36(ptr noundef nonnull align 8 dereferenceable(16) %33, ptr noundef nonnull align 8 dereferenceable(24) %2)
  %38 = icmp slt i32 %29, %37
  br i1 %38, label %.lr.ph, label %._crit_edge, !llvm.loop !43

._crit_edge:                                      ; preds = %.lr.ph, %8
  %39 = load ptr, ptr %11, align 8
  %40 = getelementptr inbounds i8, ptr %39, i64 48
  %41 = load ptr, ptr %40, align 8
  call void @_ZN9QTreeView12sortByColumnEiN2Qt9SortOrderE(ptr noundef nonnull align 8 dereferenceable(40) %41, i32 noundef 0, i32 noundef 0)
  br label %42

42:                                               ; preds = %1, %._crit_edge
  ret void
}